
all.elf:     file format elf32-littlearm


Disassembly of section .text:

00000000 <_start>:
   0:	e3a00453 	mov	r0, #1392508928	; 0x53000000
   4:	e3a01000 	mov	r1, #0
   8:	e5801000 	str	r1, [r0]
   c:	e3a01000 	mov	r1, #0
  10:	e5910000 	ldr	r0, [r1]
  14:	e5811000 	str	r1, [r1]
  18:	e5912000 	ldr	r2, [r1]
  1c:	e1510002 	cmp	r1, r2
  20:	e59fd00c 	ldr	sp, [pc, #12]	; 34 <_halt+0x4>
  24:	03a0da01 	moveq	sp, #4096	; 0x1000
  28:	05810000 	streq	r0, [r1]
  2c:	eb0000d2 	bl	37c <led_light>

00000030 <_halt>:
  30:	eafffffe 	b	30 <_halt>
  34:	40001000 	andmi	r1, r0, r0

00000038 <delay>:
  38:	e52db004 	push	{fp}		; (str fp, [sp, #-4]!)
  3c:	e28db000 	add	fp, sp, #0
  40:	e24dd00c 	sub	sp, sp, #12
  44:	e50b0008 	str	r0, [fp, #-8]
  48:	e51b3008 	ldr	r3, [fp, #-8]
  4c:	e3530000 	cmp	r3, #0
  50:	03a02000 	moveq	r2, #0
  54:	13a02001 	movne	r2, #1
  58:	e20220ff 	and	r2, r2, #255	; 0xff
  5c:	e2433001 	sub	r3, r3, #1
  60:	e50b3008 	str	r3, [fp, #-8]
  64:	e3520000 	cmp	r2, #0
  68:	1afffff6 	bne	48 <delay+0x10>
  6c:	e28bd000 	add	sp, fp, #0
  70:	e8bd0800 	pop	{fp}
  74:	e12fff1e 	bx	lr

00000078 <init_config>:
  78:	e52db004 	push	{fp}		; (str fp, [sp, #-4]!)
  7c:	e28db000 	add	fp, sp, #0
  80:	e59f2044 	ldr	r2, [pc, #68]	; cc <init_config+0x54>
  84:	e59f3040 	ldr	r3, [pc, #64]	; cc <init_config+0x54>
  88:	e5933000 	ldr	r3, [r3]
  8c:	e3c33c3f 	bic	r3, r3, #16128	; 0x3f00
  90:	e3c33033 	bic	r3, r3, #51	; 0x33
  94:	e5823000 	str	r3, [r2]
  98:	e59f3030 	ldr	r3, [pc, #48]	; d0 <init_config+0x58>
  9c:	e59f202c 	ldr	r2, [pc, #44]	; d0 <init_config+0x58>
  a0:	e5922000 	ldr	r2, [r2]
  a4:	e3c220c0 	bic	r2, r2, #192	; 0xc0
  a8:	e5832000 	str	r2, [r3]
  ac:	e59f3018 	ldr	r3, [pc, #24]	; cc <init_config+0x54>
  b0:	e59f2014 	ldr	r2, [pc, #20]	; cc <init_config+0x54>
  b4:	e5922000 	ldr	r2, [r2]
  b8:	e3822c15 	orr	r2, r2, #5376	; 0x1500
  bc:	e5832000 	str	r2, [r3]
  c0:	e28bd000 	add	sp, fp, #0
  c4:	e8bd0800 	pop	{fp}
  c8:	e12fff1e 	bx	lr
  cc:	56000050 	undefined instruction 0x56000050
  d0:	56000060 	strpl	r0, [r0], -r0, rrx

000000d4 <led_running>:
  d4:	e92d4800 	push	{fp, lr}
  d8:	e28db004 	add	fp, sp, #4
  dc:	e24dd030 	sub	sp, sp, #48	; 0x30
  e0:	e3a03000 	mov	r3, #0
  e4:	e50b3014 	str	r3, [fp, #-20]
  e8:	e3a03000 	mov	r3, #0
  ec:	e50b3018 	str	r3, [fp, #-24]
  f0:	e59f326c 	ldr	r3, [pc, #620]	; 364 <led_running+0x290>
  f4:	e50b3010 	str	r3, [fp, #-16]
  f8:	e3a03000 	mov	r3, #0
  fc:	e50b300c 	str	r3, [fp, #-12]
 100:	e3a03000 	mov	r3, #0
 104:	e50b3008 	str	r3, [fp, #-8]
 108:	e59f3258 	ldr	r3, [pc, #600]	; 368 <led_running+0x294>
 10c:	e24bc030 	sub	ip, fp, #48	; 0x30
 110:	e1a0e003 	mov	lr, r3
 114:	e8be000f 	ldm	lr!, {r0, r1, r2, r3}
 118:	e8ac000f 	stmia	ip!, {r0, r1, r2, r3}
 11c:	e89e0003 	ldm	lr, {r0, r1}
 120:	e88c0003 	stm	ip, {r0, r1}
 124:	e3a03018 	mov	r3, #24
 128:	e50b3008 	str	r3, [fp, #-8]
 12c:	e3a03000 	mov	r3, #0
 130:	e50b300c 	str	r3, [fp, #-12]
 134:	ea000085 	b	350 <led_running+0x27c>
 138:	e59f322c 	ldr	r3, [pc, #556]	; 36c <led_running+0x298>
 13c:	e5933000 	ldr	r3, [r3]
 140:	e50b3014 	str	r3, [fp, #-20]
 144:	e59f3224 	ldr	r3, [pc, #548]	; 370 <led_running+0x29c>
 148:	e5933000 	ldr	r3, [r3]
 14c:	e50b3018 	str	r3, [fp, #-24]
 150:	e51b3014 	ldr	r3, [fp, #-20]
 154:	e2033001 	and	r3, r3, #1
 158:	e20330ff 	and	r3, r3, #255	; 0xff
 15c:	e3530000 	cmp	r3, #0
 160:	0a000001 	beq	16c <led_running+0x98>
 164:	e3a03000 	mov	r3, #0
 168:	ea000000 	b	170 <led_running+0x9c>
 16c:	e3a03001 	mov	r3, #1
 170:	e3530000 	cmp	r3, #0
 174:	0a000006 	beq	194 <led_running+0xc0>
 178:	e51b2010 	ldr	r2, [fp, #-16]
 17c:	e59f31f0 	ldr	r3, [pc, #496]	; 374 <led_running+0x2a0>
 180:	e1520003 	cmp	r2, r3
 184:	ca000002 	bgt	194 <led_running+0xc0>
 188:	e51b3010 	ldr	r3, [fp, #-16]
 18c:	e2833e7d 	add	r3, r3, #2000	; 0x7d0
 190:	e50b3010 	str	r3, [fp, #-16]
 194:	e51b3014 	ldr	r3, [fp, #-20]
 198:	e1a03123 	lsr	r3, r3, #2
 19c:	e2033001 	and	r3, r3, #1
 1a0:	e20330ff 	and	r3, r3, #255	; 0xff
 1a4:	e3530000 	cmp	r3, #0
 1a8:	0a000001 	beq	1b4 <led_running+0xe0>
 1ac:	e3a03000 	mov	r3, #0
 1b0:	ea000000 	b	1b8 <led_running+0xe4>
 1b4:	e3a03001 	mov	r3, #1
 1b8:	e3530000 	cmp	r3, #0
 1bc:	0a000006 	beq	1dc <led_running+0x108>
 1c0:	e51b2010 	ldr	r2, [fp, #-16]
 1c4:	e59f31ac 	ldr	r3, [pc, #428]	; 378 <led_running+0x2a4>
 1c8:	e1520003 	cmp	r2, r3
 1cc:	da000002 	ble	1dc <led_running+0x108>
 1d0:	e51b3010 	ldr	r3, [fp, #-16]
 1d4:	e2433e7d 	sub	r3, r3, #2000	; 0x7d0
 1d8:	e50b3010 	str	r3, [fp, #-16]
 1dc:	e51b3018 	ldr	r3, [fp, #-24]
 1e0:	e1a031a3 	lsr	r3, r3, #3
 1e4:	e2033001 	and	r3, r3, #1
 1e8:	e20330ff 	and	r3, r3, #255	; 0xff
 1ec:	e3530000 	cmp	r3, #0
 1f0:	0a000001 	beq	1fc <led_running+0x128>
 1f4:	e3a03000 	mov	r3, #0
 1f8:	ea000000 	b	200 <led_running+0x12c>
 1fc:	e3a03001 	mov	r3, #1
 200:	e3530000 	cmp	r3, #0
 204:	0a000001 	beq	210 <led_running+0x13c>
 208:	e59f3154 	ldr	r3, [pc, #340]	; 364 <led_running+0x290>
 20c:	e50b3010 	str	r3, [fp, #-16]
 210:	e51b200c 	ldr	r2, [fp, #-12]
 214:	e3e0302b 	mvn	r3, #43	; 0x2b
 218:	e24b1004 	sub	r1, fp, #4
 21c:	e0812002 	add	r2, r1, r2
 220:	e0823003 	add	r3, r2, r3
 224:	e5d33000 	ldrb	r3, [r3]
 228:	e1a03223 	lsr	r3, r3, #4
 22c:	e20330ff 	and	r3, r3, #255	; 0xff
 230:	e2033001 	and	r3, r3, #1
 234:	e20330ff 	and	r3, r3, #255	; 0xff
 238:	e3530000 	cmp	r3, #0
 23c:	0a000006 	beq	25c <led_running+0x188>
 240:	e59f3124 	ldr	r3, [pc, #292]	; 36c <led_running+0x298>
 244:	e59f2120 	ldr	r2, [pc, #288]	; 36c <led_running+0x298>
 248:	e5922000 	ldr	r2, [r2]
 24c:	e3822010 	orr	r2, r2, #16
 250:	e5832000 	str	r2, [r3]
 254:	e5933000 	ldr	r3, [r3]
 258:	ea000005 	b	274 <led_running+0x1a0>
 25c:	e59f3108 	ldr	r3, [pc, #264]	; 36c <led_running+0x298>
 260:	e59f2104 	ldr	r2, [pc, #260]	; 36c <led_running+0x298>
 264:	e5922000 	ldr	r2, [r2]
 268:	e3c22010 	bic	r2, r2, #16
 26c:	e5832000 	str	r2, [r3]
 270:	e5933000 	ldr	r3, [r3]
 274:	e51b200c 	ldr	r2, [fp, #-12]
 278:	e3e0302b 	mvn	r3, #43	; 0x2b
 27c:	e24b1004 	sub	r1, fp, #4
 280:	e0812002 	add	r2, r1, r2
 284:	e0823003 	add	r3, r2, r3
 288:	e5d33000 	ldrb	r3, [r3]
 28c:	e1a032a3 	lsr	r3, r3, #5
 290:	e20330ff 	and	r3, r3, #255	; 0xff
 294:	e2033001 	and	r3, r3, #1
 298:	e20330ff 	and	r3, r3, #255	; 0xff
 29c:	e3530000 	cmp	r3, #0
 2a0:	0a000006 	beq	2c0 <led_running+0x1ec>
 2a4:	e59f30c0 	ldr	r3, [pc, #192]	; 36c <led_running+0x298>
 2a8:	e59f20bc 	ldr	r2, [pc, #188]	; 36c <led_running+0x298>
 2ac:	e5922000 	ldr	r2, [r2]
 2b0:	e3822020 	orr	r2, r2, #32
 2b4:	e5832000 	str	r2, [r3]
 2b8:	e5933000 	ldr	r3, [r3]
 2bc:	ea000005 	b	2d8 <led_running+0x204>
 2c0:	e59f30a4 	ldr	r3, [pc, #164]	; 36c <led_running+0x298>
 2c4:	e59f20a0 	ldr	r2, [pc, #160]	; 36c <led_running+0x298>
 2c8:	e5922000 	ldr	r2, [r2]
 2cc:	e3c22020 	bic	r2, r2, #32
 2d0:	e5832000 	str	r2, [r3]
 2d4:	e5933000 	ldr	r3, [r3]
 2d8:	e51b200c 	ldr	r2, [fp, #-12]
 2dc:	e3e0302b 	mvn	r3, #43	; 0x2b
 2e0:	e24b1004 	sub	r1, fp, #4
 2e4:	e0812002 	add	r2, r1, r2
 2e8:	e0823003 	add	r3, r2, r3
 2ec:	e5d33000 	ldrb	r3, [r3]
 2f0:	e1a03323 	lsr	r3, r3, #6
 2f4:	e20330ff 	and	r3, r3, #255	; 0xff
 2f8:	e2033001 	and	r3, r3, #1
 2fc:	e20330ff 	and	r3, r3, #255	; 0xff
 300:	e3530000 	cmp	r3, #0
 304:	0a000006 	beq	324 <led_running+0x250>
 308:	e59f305c 	ldr	r3, [pc, #92]	; 36c <led_running+0x298>
 30c:	e59f2058 	ldr	r2, [pc, #88]	; 36c <led_running+0x298>
 310:	e5922000 	ldr	r2, [r2]
 314:	e3822040 	orr	r2, r2, #64	; 0x40
 318:	e5832000 	str	r2, [r3]
 31c:	e5933000 	ldr	r3, [r3]
 320:	ea000005 	b	33c <led_running+0x268>
 324:	e59f3040 	ldr	r3, [pc, #64]	; 36c <led_running+0x298>
 328:	e59f203c 	ldr	r2, [pc, #60]	; 36c <led_running+0x298>
 32c:	e5922000 	ldr	r2, [r2]
 330:	e3c22040 	bic	r2, r2, #64	; 0x40
 334:	e5832000 	str	r2, [r3]
 338:	e5933000 	ldr	r3, [r3]
 33c:	e51b0010 	ldr	r0, [fp, #-16]
 340:	ebffff3c 	bl	38 <delay>
 344:	e51b300c 	ldr	r3, [fp, #-12]
 348:	e2833001 	add	r3, r3, #1
 34c:	e50b300c 	str	r3, [fp, #-12]
 350:	e51b200c 	ldr	r2, [fp, #-12]
 354:	e51b3008 	ldr	r3, [fp, #-8]
 358:	e1520003 	cmp	r2, r3
 35c:	3affff75 	bcc	138 <led_running+0x64>
 360:	eaffff71 	b	12c <led_running+0x58>
 364:	000061a8 	andeq	r6, r0, r8, lsr #3
 368:	00000398 	muleq	r0, r8, r3
 36c:	56000054 	undefined instruction 0x56000054
 370:	56000064 	strpl	r0, [r0], -r4, rrx
 374:	0000c34f 	andeq	ip, r0, pc, asr #6
 378:	00001388 	andeq	r1, r0, r8, lsl #7

0000037c <led_light>:
 37c:	e92d4800 	push	{fp, lr}
 380:	e28db004 	add	fp, sp, #4
 384:	ebffff3b 	bl	78 <init_config>
 388:	ebffff51 	bl	d4 <led_running>
 38c:	e24bd004 	sub	sp, fp, #4
 390:	e8bd4800 	pop	{fp, lr}
 394:	e12fff1e 	bx	lr
